target datalayout = "e-m:e-p270:32:32-p271:32:32-p272:64:64-i64:64-i128:128-f80:128-n8:16:32:64-S128"
target triple = "x86_64-pc-linux-gnu"

; Function Attrs: nounwind uwtable
define double @vectors_inner_productf(i32 noundef %0, ptr noundef %1, ptr noundef %2) #0 {
  %4 = alloca i32, align 4
  %5 = alloca ptr, align 8
  %6 = alloca ptr, align 8
  %7 = alloca i32, align 4
  %8 = alloca double, align 8
  store i32 %0, ptr %4, align 4, !tbaa !8
  store ptr %1, ptr %5, align 8, !tbaa !40
  store ptr %2, ptr %6, align 8, !tbaa !40
  call void @llvm.lifetime.start.p0(i64 4, ptr %7) #8
  call void @llvm.lifetime.start.p0(i64 8, ptr %8) #8
  store double 0.000000e+00, ptr %8, align 8, !tbaa !12
  store i32 0, ptr %7, align 4, !tbaa !8
  br label %9

9:                                                ; preds = %28, %3
  %10 = load i32, ptr %7, align 4, !tbaa !8
  %11 = load i32, ptr %4, align 4, !tbaa !8
  %12 = icmp slt i32 %10, %11
  br i1 %12, label %13, label %31

13:                                               ; preds = %9
  %14 = load ptr, ptr %5, align 8, !tbaa !40
  %15 = load i32, ptr %7, align 4, !tbaa !8
  %16 = sext i32 %15 to i64
  %17 = getelementptr inbounds float, ptr %14, i64 %16
  %18 = load float, ptr %17, align 4, !tbaa !43
  %19 = load ptr, ptr %6, align 8, !tbaa !40
  %20 = load i32, ptr %7, align 4, !tbaa !8
  %21 = sext i32 %20 to i64
  %22 = getelementptr inbounds float, ptr %19, i64 %21
  %23 = load float, ptr %22, align 4, !tbaa !43
  %24 = fmul float %18, %23
  %25 = fpext float %24 to double
  %26 = load double, ptr %8, align 8, !tbaa !12
  %27 = fadd double %26, %25
  store double %27, ptr %8, align 8, !tbaa !12
  br label %28

28:                                               ; preds = %13
  %29 = load i32, ptr %7, align 4, !tbaa !8
  %30 = add nsw i32 %29, 1
  store i32 %30, ptr %7, align 4, !tbaa !8
  br label %9, !llvm.loop !85

31:                                               ; preds = %9
  %32 = load double, ptr %8, align 8, !tbaa !12
  call void @llvm.lifetime.end.p0(i64 8, ptr %8) #8
  call void @llvm.lifetime.end.p0(i64 4, ptr %7) #8
  ret double %32
}