; Function Attrs: nofree norecurse nosync nounwind memory(argmem: read) uwtable
define double @vectors_inner_productf(i32 noundef %0, ptr noundef readonly captures(none) %1, ptr noundef readonly captures(none) %2) local_unnamed_addr #2 {
  %4 = icmp sgt i32 %0, 0
  br i1 %4, label %.lr.ph.preheader, label %._crit_edge

.lr.ph.preheader:                                 ; preds = %3
  %wide.trip.count = zext nneg i32 %0 to i64
  br label %.lr.ph

.lr.ph:                                           ; preds = %.lr.ph.preheader, %.lr.ph
  %indvars.iv = phi i64 [ 0, %.lr.ph.preheader ], [ %indvars.iv.next, %.lr.ph ]
  %.010 = phi double [ 0.000000e+00, %.lr.ph.preheader ], [ %11, %.lr.ph ]
  %5 = getelementptr inbounds nuw float, ptr %1, i64 %indvars.iv
  %6 = load float, ptr %5, align 4, !tbaa !35
  %7 = getelementptr inbounds nuw float, ptr %2, i64 %indvars.iv
  %8 = load float, ptr %7, align 4, !tbaa !35
  %9 = fmul float %6, %8
  %10 = fpext float %9 to double
  %11 = fadd double %.010, %10
  %indvars.iv.next = add nuw nsw i64 %indvars.iv, 1
  %exitcond.not = icmp eq i64 %indvars.iv.next, %wide.trip.count
  br i1 %exitcond.not, label %._crit_edge, label %.lr.ph, !llvm.loop !77

._crit_edge:                                      ; preds = %.lr.ph, %3
  %.0.lcssa = phi double [ 0.000000e+00, %3 ], [ %11, %.lr.ph ]
  ret double %.0.lcssa
}